target datalayout = "e-m:e-p270:32:32-p271:32:32-p272:64:64-i64:64-i128:128-f80:128-n8:16:32:64-S128"
target triple = "x86_64-pc-linux-gnu"

%struct.hwloc_infos_s = type { ptr, i32, i32 }
%struct.hwloc_obj = type { i32, ptr, i32, ptr, i64, ptr, i32, i32, ptr, ptr, ptr, i32, ptr, ptr, i32, ptr, ptr, ptr, i32, i32, ptr, i32, ptr, i32, ptr, ptr, ptr, ptr, ptr, %struct.hwloc_infos_s, ptr, i64 }

; Function Attrs: nounwind uwtable
define internal i32 @compare_nodes_by_os_index(ptr noundef %0, ptr noundef %1) #0 {
  %3 = alloca ptr, align 8
  %4 = alloca ptr, align 8
  %5 = alloca ptr, align 8
  %6 = alloca ptr, align 8
  store ptr %0, ptr %3, align 8, !tbaa !120
  store ptr %1, ptr %4, align 8, !tbaa !120
  call void @llvm.lifetime.start.p0(i64 8, ptr %5) #14
  %7 = load ptr, ptr %3, align 8, !tbaa !120
  store ptr %7, ptr %5, align 8, !tbaa !81
  call void @llvm.lifetime.start.p0(i64 8, ptr %6) #14
  %8 = load ptr, ptr %4, align 8, !tbaa !120
  store ptr %8, ptr %6, align 8, !tbaa !81
  %9 = load ptr, ptr %5, align 8, !tbaa !81
  %10 = load ptr, ptr %9, align 8, !tbaa !83
  %11 = getelementptr inbounds nuw %struct.hwloc_obj, ptr %10, i32 0, i32 2
  %12 = load i32, ptr %11, align 8, !tbaa !93
  %13 = load ptr, ptr %6, align 8, !tbaa !81
  %14 = load ptr, ptr %13, align 8, !tbaa !83
  %15 = getelementptr inbounds nuw %struct.hwloc_obj, ptr %14, i32 0, i32 2
  %16 = load i32, ptr %15, align 8, !tbaa !93
  %17 = sub i32 %12, %16
  call void @llvm.lifetime.end.p0(i64 8, ptr %6) #14
  call void @llvm.lifetime.end.p0(i64 8, ptr %5) #14
  ret i32 %17
}