; Function Attrs: mustprogress nofree norecurse nosync nounwind willreturn memory(read, inaccessiblemem: none) uwtable
define internal i32 @compare_nodes_by_os_index(ptr noundef readonly captures(none) %0, ptr noundef readonly captures(none) %1) #17 {
  %3 = load ptr, ptr %0, align 8, !tbaa !80
  %4 = getelementptr inbounds nuw i8, ptr %3, i64 16
  %5 = load i32, ptr %4, align 8, !tbaa !74
  %6 = load ptr, ptr %1, align 8, !tbaa !80
  %7 = getelementptr inbounds nuw i8, ptr %6, i64 16
  %8 = load i32, ptr %7, align 8, !tbaa !74
  %9 = sub i32 %5, %8
  ret i32 %9
}